; Function Attrs: mustprogress uwtable
define dso_local noundef zeroext i1 @_ZNK8Function10is_var_oosEPK8VariablePK9Statement(ptr noundef nonnull readonly align 8 captures(none) dereferenceable(424) %0, ptr noundef %1, ptr noundef readonly captures(none) %2) local_unnamed_addr #4 align 2 {
  %4 = load ptr, ptr %1, align 8
  %5 = getelementptr inbounds nuw i8, ptr %4, i64 16
  %6 = load ptr, ptr %5, align 8
  %7 = tail call noundef zeroext i1 %6(ptr noundef nonnull align 8 dereferenceable(200) %1)
  br i1 %7, label %_ZNK8Function14is_var_visibleEPK8VariablePK9Statement.exit.thread, label %8

8:                                                ; preds = %3
  %9 = getelementptr inbounds nuw i8, ptr %0, i64 32
  %10 = getelementptr inbounds nuw i8, ptr %0, i64 40
  %11 = load ptr, ptr %10, align 8
  %12 = load ptr, ptr %9, align 8
  %.not15.i.i = icmp eq ptr %11, %12
  br i1 %.not15.i.i, label %.preheader.i.i.preheader, label %.lr.ph.i.i

.preheader.i.i.preheader:                         ; preds = %13, %8
  br label %.preheader.i.i

13:                                               ; preds = %.lr.ph.i.i
  %14 = add nuw i64 %.01014.i.i, 1
  %15 = load ptr, ptr %10, align 8
  %16 = load ptr, ptr %9, align 8
  %17 = ptrtoint ptr %15 to i64
  %18 = ptrtoint ptr %16 to i64
  %19 = sub i64 %17, %18
  %20 = ashr exact i64 %19, 3
  %21 = icmp ult i64 %14, %20
  br i1 %21, label %.lr.ph.i.i, label %.preheader.i.i.preheader, !llvm.loop !14

.lr.ph.i.i:                                       ; preds = %8, %13
  %22 = phi ptr [ %16, %13 ], [ %12, %8 ]
  %.01014.i.i = phi i64 [ %14, %13 ], [ 0, %8 ]
  %23 = getelementptr inbounds ptr, ptr %22, i64 %.01014.i.i
  %24 = load ptr, ptr %23, align 8
  %25 = tail call noundef zeroext i1 @_ZNK8Variable5matchEPKS_(ptr noundef nonnull align 8 dereferenceable(200) %24, ptr noundef nonnull %1)
  br i1 %25, label %_ZNK8Function14is_var_visibleEPK8VariablePK9Statement.exit.thread, label %13

.preheader.i.i:                                   ; preds = %.preheader.i.i.preheader, %30
  %.pn.i.i = phi ptr [ %.0.i.i, %30 ], [ %2, %.preheader.i.i.preheader ]
  %.0.in.i.i = getelementptr inbounds nuw i8, ptr %.pn.i.i, i64 24
  %.0.i.i = load ptr, ptr %.0.in.i.i, align 8
  %.not.not.i.not.i = icmp eq ptr %.0.i.i, null
  br i1 %.not.not.i.not.i, label %_ZNK8Function14is_var_visibleEPK8VariablePK9Statement.exit.preheader, label %30

_ZNK8Function14is_var_visibleEPK8VariablePK9Statement.exit.preheader: ; preds = %.preheader.i.i
  %26 = getelementptr inbounds nuw i8, ptr %0, i64 168
  %27 = getelementptr inbounds nuw i8, ptr %0, i64 176
  %28 = load ptr, ptr %27, align 8
  %29 = load ptr, ptr %26, align 8
  %.not12 = icmp eq ptr %28, %29
  br i1 %.not12, label %_ZNK8Function14is_var_visibleEPK8VariablePK9Statement.exit.thread, label %.lr.ph

30:                                               ; preds = %.preheader.i.i
  %31 = getelementptr inbounds nuw i8, ptr %.0.i.i, i64 80
  %32 = tail call noundef i32 @_Z20find_variable_in_setRKSt6vectorIP8VariableSaIS1_EEPKS0_(ptr noundef nonnull align 8 dereferenceable(24) %31, ptr noundef nonnull %1)
  %.not12.i.i = icmp eq i32 %32, -1
  br i1 %.not12.i.i, label %.preheader.i.i, label %_ZNK8Function14is_var_visibleEPK8VariablePK9Statement.exit.thread, !llvm.loop !15

_ZNK8Function14is_var_visibleEPK8VariablePK9Statement.exit: ; preds = %.lr.ph
  %33 = add nuw i64 %.010, 1
  %34 = load ptr, ptr %27, align 8
  %35 = load ptr, ptr %26, align 8
  %36 = ptrtoint ptr %34 to i64
  %37 = ptrtoint ptr %35 to i64
  %38 = sub i64 %36, %37
  %39 = ashr exact i64 %38, 3
  %40 = icmp ult i64 %33, %39
  br i1 %40, label %.lr.ph, label %_ZNK8Function14is_var_visibleEPK8VariablePK9Statement.exit.thread, !llvm.loop !16

.lr.ph:                                           ; preds = %_ZNK8Function14is_var_visibleEPK8VariablePK9Statement.exit.preheader, %_ZNK8Function14is_var_visibleEPK8VariablePK9Statement.exit
  %41 = phi ptr [ %35, %_ZNK8Function14is_var_visibleEPK8VariablePK9Statement.exit ], [ %29, %_ZNK8Function14is_var_visibleEPK8VariablePK9Statement.exit.preheader ]
  %.010 = phi i64 [ %33, %_ZNK8Function14is_var_visibleEPK8VariablePK9Statement.exit ], [ 0, %_ZNK8Function14is_var_visibleEPK8VariablePK9Statement.exit.preheader ]
  %42 = getelementptr inbounds ptr, ptr %41, i64 %.010
  %43 = load ptr, ptr %42, align 8
  %44 = getelementptr inbounds nuw i8, ptr %43, i64 80
  %45 = tail call noundef i32 @_Z20find_variable_in_setRKSt6vectorIP8VariableSaIS1_EEPKS0_(ptr noundef nonnull align 8 dereferenceable(24) %44, ptr noundef nonnull %1)
  %.not.not.not = icmp ne i32 %45, -1
  br i1 %.not.not.not, label %_ZNK8Function14is_var_visibleEPK8VariablePK9Statement.exit.thread, label %_ZNK8Function14is_var_visibleEPK8VariablePK9Statement.exit

_ZNK8Function14is_var_visibleEPK8VariablePK9Statement.exit.thread: ; preds = %.lr.ph.i.i, %30, %.lr.ph, %_ZNK8Function14is_var_visibleEPK8VariablePK9Statement.exit, %_ZNK8Function14is_var_visibleEPK8VariablePK9Statement.exit.preheader, %3
  %.07 = phi i1 [ false, %3 ], [ false, %_ZNK8Function14is_var_visibleEPK8VariablePK9Statement.exit.preheader ], [ %.not.not.not, %_ZNK8Function14is_var_visibleEPK8VariablePK9Statement.exit ], [ %.not.not.not, %.lr.ph ], [ false, %30 ], [ false, %.lr.ph.i.i ]
  ret i1 %.07
}